; Function Attrs: mustprogress nofree norecurse nosync nounwind willreturn memory(read, inaccessiblemem: none) uwtable
define hidden range(i32 0, 2) i32 @CBS_peek_asn1_tag(ptr noundef readonly captures(none) %0, i32 noundef %1) local_unnamed_addr #13 {
  %3 = getelementptr inbounds nuw i8, ptr %0, i64 8
  %4 = load i64, ptr %3, align 8, !tbaa !13
  %5 = icmp eq i64 %4, 0
  br i1 %5, label %12, label %6

6:                                                ; preds = %2
  %7 = load ptr, ptr %0, align 8, !tbaa !6
  %8 = load i8, ptr %7, align 1, !tbaa !16
  %9 = zext i8 %8 to i32
  %10 = icmp eq i32 %1, %9
  %11 = zext i1 %10 to i32
  br label %12

12:                                               ; preds = %2, %6
  %.0 = phi i32 [ %11, %6 ], [ 0, %2 ]
  ret i32 %.0
}